target datalayout = "e-m:e-p270:32:32-p271:32:32-p272:64:64-i64:64-i128:128-f80:128-n8:16:32:64-S128"
target triple = "x86_64-pc-linux-gnu"

%struct.dlist_node = type { ptr, ptr }
%struct.dsm_control_header = type { i32, i32, i32, [0 x %struct.dsm_control_item] }
%struct.dsm_control_item = type { i32, i32, i64, i64, ptr, i8 }
%union.LWLockPadded = type { %struct.LWLock, [112 x i8] }
%struct.LWLock = type { i16, %struct.pg_atomic_uint32, %struct.proclist_head }
%struct.pg_atomic_uint32 = type { i32 }
%struct.proclist_head = type { i32, i32 }
%struct.dsm_segment = type { %struct.dlist_node, ptr, i32, i32, ptr, ptr, i64, %struct.slist_head }
%struct.slist_head = type { %struct.slist_node }
%struct.slist_node = type { ptr }

@.str.1 = private unnamed_addr constant [6 x i8] c"dsm.c\00", align 1
@dsm_control = internal global ptr null, align 8
@MainLWLockArray = external global ptr, align 8
@.str.8 = private unnamed_addr constant [44 x i8] c"cannot pin a segment that is already pinned\00", align 1
@__func__.dsm_pin_segment = private unnamed_addr constant [16 x i8] c"dsm_pin_segment\00", align 1

; Function Attrs: inlinehint nounwind uwtable
define internal zeroext i1 @is_main_region_dsm_handle(i32 noundef %0) #4 {
  %2 = alloca i32, align 4
  store i32 %0, ptr %2, align 4
  %3 = load i32, ptr %2, align 4
  %4 = and i32 %3, 1
  %5 = icmp ne i32 %4, 0
  ret i1 %5
}

; Function Attrs: nounwind uwtable
define dso_local void @dsm_pin_segment(ptr noundef %0) #0 {
  %2 = alloca ptr, align 8
  %3 = alloca ptr, align 8
  store ptr %0, ptr %2, align 8
  call void @llvm.lifetime.start.p0(i64 8, ptr %3) #8
  store ptr null, ptr %3, align 8
  %4 = load ptr, ptr @MainLWLockArray, align 8
  %5 = getelementptr inbounds %union.LWLockPadded, ptr %4, i64 34
  %6 = call zeroext i1 @LWLockAcquire(ptr noundef %5, i32 noundef 0)
  %7 = load ptr, ptr @dsm_control, align 8
  %8 = getelementptr inbounds nuw %struct.dsm_control_header, ptr %7, i32 0, i32 3
  %9 = load ptr, ptr %2, align 8
  %10 = getelementptr inbounds nuw %struct.dsm_segment, ptr %9, i32 0, i32 3
  %11 = load i32, ptr %10, align 4
  %12 = zext i32 %11 to i64
  %13 = getelementptr inbounds nuw [0 x %struct.dsm_control_item], ptr %8, i64 0, i64 %12
  %14 = getelementptr inbounds nuw %struct.dsm_control_item, ptr %13, i32 0, i32 5
  %15 = load i8, ptr %14, align 8, !range !8, !noundef !9
  %16 = trunc i8 %15 to i1
  br i1 %16, label %17, label %28

17:                                               ; preds = %1
  br label %18

18:                                               ; preds = %17
  br i1 true, label %19, label %21

19:                                               ; preds = %18
  %20 = call zeroext i1 @errstart_cold(i32 noundef 21, ptr noundef null) #9
  br i1 %20, label %23, label %25

21:                                               ; preds = %18
  %22 = call zeroext i1 @errstart(i32 noundef 21, ptr noundef null)
  br i1 %22, label %23, label %25

23:                                               ; preds = %21, %19
  %24 = call i32 (ptr, ...) @errmsg_internal(ptr noundef @.str.8)
  call void @errfinish(ptr noundef @.str.1, i32 noundef 967, ptr noundef @__func__.dsm_pin_segment)
  br label %25

25:                                               ; preds = %23, %21, %19
  unreachable

26:                                               ; No predecessors!
  br label %27

27:                                               ; preds = %26
  br label %28

28:                                               ; preds = %27, %1
  %29 = load ptr, ptr %2, align 8
  %30 = getelementptr inbounds nuw %struct.dsm_segment, ptr %29, i32 0, i32 2
  %31 = load i32, ptr %30, align 8
  %32 = call zeroext i1 @is_main_region_dsm_handle(i32 noundef %31)
  br i1 %32, label %40, label %33

33:                                               ; preds = %28
  %34 = load ptr, ptr %2, align 8
  %35 = getelementptr inbounds nuw %struct.dsm_segment, ptr %34, i32 0, i32 2
  %36 = load i32, ptr %35, align 8
  %37 = load ptr, ptr %2, align 8
  %38 = getelementptr inbounds nuw %struct.dsm_segment, ptr %37, i32 0, i32 4
  %39 = load ptr, ptr %38, align 8
  call void @dsm_impl_pin_segment(i32 noundef %36, ptr noundef %39, ptr noundef %3)
  br label %40

40:                                               ; preds = %33, %28
  %41 = load ptr, ptr @dsm_control, align 8
  %42 = getelementptr inbounds nuw %struct.dsm_control_header, ptr %41, i32 0, i32 3
  %43 = load ptr, ptr %2, align 8
  %44 = getelementptr inbounds nuw %struct.dsm_segment, ptr %43, i32 0, i32 3
  %45 = load i32, ptr %44, align 4
  %46 = zext i32 %45 to i64
  %47 = getelementptr inbounds nuw [0 x %struct.dsm_control_item], ptr %42, i64 0, i64 %46
  %48 = getelementptr inbounds nuw %struct.dsm_control_item, ptr %47, i32 0, i32 5
  store i8 1, ptr %48, align 8
  %49 = load ptr, ptr @dsm_control, align 8
  %50 = getelementptr inbounds nuw %struct.dsm_control_header, ptr %49, i32 0, i32 3
  %51 = load ptr, ptr %2, align 8
  %52 = getelementptr inbounds nuw %struct.dsm_segment, ptr %51, i32 0, i32 3
  %53 = load i32, ptr %52, align 4
  %54 = zext i32 %53 to i64
  %55 = getelementptr inbounds nuw [0 x %struct.dsm_control_item], ptr %50, i64 0, i64 %54
  %56 = getelementptr inbounds nuw %struct.dsm_control_item, ptr %55, i32 0, i32 1
  %57 = load i32, ptr %56, align 4
  %58 = add i32 %57, 1
  store i32 %58, ptr %56, align 4
  %59 = load ptr, ptr %3, align 8
  %60 = load ptr, ptr @dsm_control, align 8
  %61 = getelementptr inbounds nuw %struct.dsm_control_header, ptr %60, i32 0, i32 3
  %62 = load ptr, ptr %2, align 8
  %63 = getelementptr inbounds nuw %struct.dsm_segment, ptr %62, i32 0, i32 3
  %64 = load i32, ptr %63, align 4
  %65 = zext i32 %64 to i64
  %66 = getelementptr inbounds nuw [0 x %struct.dsm_control_item], ptr %61, i64 0, i64 %65
  %67 = getelementptr inbounds nuw %struct.dsm_control_item, ptr %66, i32 0, i32 4
  store ptr %59, ptr %67, align 8
  %68 = load ptr, ptr @MainLWLockArray, align 8
  %69 = getelementptr inbounds %union.LWLockPadded, ptr %68, i64 34
  call void @LWLockRelease(ptr noundef %69)
  call void @llvm.lifetime.end.p0(i64 8, ptr %3) #8
  ret void
}