; Function Attrs: nounwind uwtable
define dso_local void @dsm_pin_segment(ptr noundef readonly captures(none) %0) local_unnamed_addr #0 {
  %2 = alloca ptr, align 8
  call void @llvm.lifetime.start.p0(i64 8, ptr nonnull %2) #12
  store ptr null, ptr %2, align 8
  %3 = load ptr, ptr @MainLWLockArray, align 8
  %4 = getelementptr inbounds nuw i8, ptr %3, i64 4352
  %5 = tail call zeroext i1 @LWLockAcquire(ptr noundef nonnull %4, i32 noundef 0) #12
  %6 = load ptr, ptr @dsm_control, align 8
  %7 = getelementptr inbounds nuw i8, ptr %0, i64 28
  %8 = load i32, ptr %7, align 4
  %9 = zext i32 %8 to i64
  %.idx = mul nuw nsw i64 %9, 40
  %10 = getelementptr i8, ptr %6, i64 48
  %11 = getelementptr i8, ptr %10, i64 %.idx
  %12 = load i8, ptr %11, align 8, !range !8, !noundef !9
  %13 = trunc nuw i8 %12 to i1
  br i1 %13, label %14, label %17

14:                                               ; preds = %1
  %15 = tail call zeroext i1 @errstart_cold(i32 noundef 21, ptr noundef null) #14
  tail call void @llvm.assume(i1 %15)
  %16 = tail call i32 (ptr, ...) @errmsg_internal(ptr noundef nonnull @.str.8) #12
  tail call void @errfinish(ptr noundef nonnull @.str.1, i32 noundef 967, ptr noundef nonnull @__func__.dsm_pin_segment) #12
  unreachable

17:                                               ; preds = %1
  %18 = getelementptr inbounds nuw i8, ptr %0, i64 24
  %19 = load i32, ptr %18, align 8
  %20 = and i32 %19, 1
  %.not = icmp eq i32 %20, 0
  br i1 %.not, label %21, label %24

21:                                               ; preds = %17
  %22 = getelementptr inbounds nuw i8, ptr %0, i64 32
  %23 = load ptr, ptr %22, align 8
  call void @dsm_impl_pin_segment(i32 noundef %19, ptr noundef %23, ptr noundef nonnull %2) #12
  %.pre = load ptr, ptr @dsm_control, align 8
  %.pre10 = load i32, ptr %7, align 4
  %.pre11 = zext i32 %.pre10 to i64
  %.pre12 = mul nuw nsw i64 %.pre11, 40
  br label %24

24:                                               ; preds = %21, %17
  %.idx7.pre-phi = phi i64 [ %.pre12, %21 ], [ %.idx, %17 ]
  %25 = phi ptr [ %.pre, %21 ], [ %6, %17 ]
  %26 = getelementptr i8, ptr %25, i64 48
  %27 = getelementptr i8, ptr %26, i64 %.idx7.pre-phi
  store i8 1, ptr %27, align 8
  %28 = load i32, ptr %7, align 4
  %29 = zext i32 %28 to i64
  %.idx8 = mul nuw nsw i64 %29, 40
  %30 = getelementptr i8, ptr %25, i64 20
  %31 = getelementptr i8, ptr %30, i64 %.idx8
  %32 = load i32, ptr %31, align 4
  %33 = add i32 %32, 1
  store i32 %33, ptr %31, align 4
  %34 = load ptr, ptr %2, align 8
  %35 = load i32, ptr %7, align 4
  %36 = zext i32 %35 to i64
  %.idx9 = mul nuw nsw i64 %36, 40
  %37 = getelementptr i8, ptr %25, i64 40
  %38 = getelementptr i8, ptr %37, i64 %.idx9
  store ptr %34, ptr %38, align 8
  %39 = load ptr, ptr @MainLWLockArray, align 8
  %40 = getelementptr inbounds nuw i8, ptr %39, i64 4352
  call void @LWLockRelease(ptr noundef nonnull %40) #12
  call void @llvm.lifetime.end.p0(i64 8, ptr nonnull %2) #12
  ret void
}